target datalayout = "e-m:e-p270:32:32-p271:32:32-p272:64:64-i64:64-i128:128-f80:128-n8:16:32:64-S128"
target triple = "x86_64-pc-linux-gnu"

@stderr = external global ptr, align 8
@stdout = external global ptr, align 8
@.str.8 = private unnamed_addr constant [36 x i8] c"\0Aout of memory allocating %u bytes\0A\00", align 1

; Function Attrs: nounwind uwtable
define void @Extra_UtilMMout_Of_Memory(i64 noundef %0) #0 {
  %2 = alloca i64, align 8
  store i64 %0, ptr %2, align 8
  %3 = load ptr, ptr @stdout, align 8
  %4 = call i32 @fflush(ptr noundef %3)
  %5 = load ptr, ptr @stderr, align 8
  %6 = load i64, ptr %2, align 8
  %7 = trunc i64 %6 to i32
  %8 = call i32 (ptr, ptr, ...) @fprintf(ptr noundef %5, ptr noundef @.str.8, i32 noundef %7) #7
  call void @exit(i32 noundef 1) #9
  unreachable
}