; Function Attrs: cold nofree noreturn nounwind uwtable
define void @Extra_UtilMMout_Of_Memory(i64 noundef %0) #10 {
  %2 = load ptr, ptr @stdout, align 8
  %3 = tail call i32 @fflush(ptr noundef %2)
  %4 = load ptr, ptr @stderr, align 8
  %5 = trunc i64 %0 to i32
  %6 = tail call i32 (ptr, ptr, ...) @fprintf(ptr noundef %4, ptr noundef nonnull @.str.8, i32 noundef %5) #15
  tail call void @exit(i32 noundef 1) #18
  unreachable
}